; Function Attrs: nounwind sspstrong uwtable
define internal range(i64 1, 512) i64 @rb_gzreader_readbyte(i64 noundef %0) #0 {
  %2 = tail call ptr @rb_check_typeddata(i64 noundef %0, ptr noundef nonnull @gzfile_data_type) #18
  %3 = load i64, ptr %2, align 8, !tbaa !113
  %4 = and i64 %3, 1
  %.not.i.i = icmp eq i64 %4, 0
  br i1 %.not.i.i, label %5, label %get_gzfile.exit.i

5:                                                ; preds = %1
  %6 = load i64, ptr @cGzError, align 8, !tbaa !6
  tail call void (i64, ptr, ...) @rb_raise(i64 noundef %6, ptr noundef nonnull @.str.165) #19
  unreachable

get_gzfile.exit.i:                                ; preds = %1
  %7 = tail call fastcc i64 @gzfile_read(ptr noundef nonnull %2, i64 noundef 1, i64 noundef 4)
  %8 = icmp eq i64 %7, 4
  br i1 %8, label %rb_gzreader_getbyte.exit.thread, label %9

9:                                                ; preds = %get_gzfile.exit.i
  %10 = inttoptr i64 %7 to ptr
  %11 = load i64, ptr %10, align 8, !tbaa !16, !noalias !181
  %12 = and i64 %11, 8192
  %.not.i.i.i = icmp eq i64 %12, 0
  %13 = getelementptr inbounds nuw i8, ptr %10, i64 24
  br i1 %.not.i.i.i, label %rb_gzreader_getbyte.exit, label %14

14:                                               ; preds = %9
  %.sroa.2.0.copyload.i.i = load ptr, ptr %13, align 8
  br label %rb_gzreader_getbyte.exit

rb_gzreader_getbyte.exit.thread:                  ; preds = %get_gzfile.exit.i
  %15 = load i64, ptr @rb_eEOFError, align 8, !tbaa !6
  tail call void (i64, ptr, ...) @rb_raise(i64 noundef %15, ptr noundef nonnull @.str.193) #19
  unreachable

rb_gzreader_getbyte.exit:                         ; preds = %14, %9
  %.sroa.2.0.i.i = phi ptr [ %.sroa.2.0.copyload.i.i, %14 ], [ %13, %9 ]
  %16 = load i8, ptr %.sroa.2.0.i.i, align 1, !tbaa !149
  %17 = zext i8 %16 to i64
  %18 = shl nuw nsw i64 %17, 1
  %19 = or disjoint i64 %18, 1
  ret i64 %19
}